target datalayout = "e-m:e-p270:32:32-p271:32:32-p272:64:64-i64:64-i128:128-f80:128-n8:16:32:64-S128"
target triple = "x86_64-pc-linux-gnu"

%"class.YAML::Stream" = type { ptr, %"struct.YAML::Mark", i32, i8, %"class.std::deque", ptr, i64, i64 }
%"struct.YAML::Mark" = type { i32, i32, i32 }
%"class.std::deque" = type { %"class.std::_Deque_base" }
%"class.std::_Deque_base" = type { %"struct.std::_Deque_base<char, std::allocator<char>>::_Deque_impl" }
%"struct.std::_Deque_base<char, std::allocator<char>>::_Deque_impl" = type { %"struct.std::_Deque_base<char, std::allocator<char>>::_Deque_impl_data" }
%"struct.std::_Deque_base<char, std::allocator<char>>::_Deque_impl_data" = type { ptr, i64, %"struct.std::_Deque_iterator", %"struct.std::_Deque_iterator" }
%"struct.std::_Deque_iterator" = type { ptr, ptr, ptr, ptr }
%"class.std::basic_ios" = type { %"class.std::ios_base", ptr, i8, i8, ptr, ptr, ptr, ptr }
%"class.std::ios_base" = type { ptr, i64, i64, i32, i32, i32, ptr, %"struct.std::ios_base::_Words", [8 x %"struct.std::ios_base::_Words"], i32, ptr, %"class.std::locale" }
%"struct.std::ios_base::_Words" = type { ptr, i64 }
%"class.std::locale" = type { ptr }

; Function Attrs: inlinehint mustprogress nounwind uwtable
define linkonce_odr noundef i32 @_ZStorSt12_Ios_IostateS_(i32 noundef %0, i32 noundef %1) #6 comdat {
  %3 = alloca i32, align 4
  %4 = alloca i32, align 4
  store i32 %0, ptr %3, align 4, !tbaa !85
  store i32 %1, ptr %4, align 4, !tbaa !85
  %5 = load i32, ptr %3, align 4, !tbaa !85
  %6 = load i32, ptr %4, align 4, !tbaa !85
  %7 = or i32 %5, %6
  ret i32 %7
}

; Function Attrs: mustprogress nounwind uwtable
define available_externally noundef i32 @_ZNKSt9basic_iosIcSt11char_traitsIcEE7rdstateEv(ptr noundef nonnull align 8 dereferenceable(264) %0) #1 align 2 {
  %2 = alloca ptr, align 8
  store ptr %0, ptr %2, align 8, !tbaa !50
  %3 = load ptr, ptr %2, align 8
  %4 = getelementptr inbounds nuw %"class.std::ios_base", ptr %3, i32 0, i32 5
  %5 = load i32, ptr %4, align 8, !tbaa !127
  ret i32 %5
}

; Function Attrs: mustprogress uwtable
define available_externally void @_ZNSt9basic_iosIcSt11char_traitsIcEE8setstateESt12_Ios_Iostate(ptr noundef nonnull align 8 dereferenceable(264) %0, i32 noundef %1) #0 align 2 {
  %3 = alloca ptr, align 8
  %4 = alloca i32, align 4
  store ptr %0, ptr %3, align 8, !tbaa !50
  store i32 %1, ptr %4, align 4, !tbaa !85
  %5 = load ptr, ptr %3, align 8
  %6 = call noundef i32 @_ZNKSt9basic_iosIcSt11char_traitsIcEE7rdstateEv(ptr noundef nonnull align 8 dereferenceable(264) %5)
  %7 = load i32, ptr %4, align 4, !tbaa !85
  %8 = call noundef i32 @_ZStorSt12_Ios_IostateS_(i32 noundef %6, i32 noundef %7)
  call void @_ZNSt9basic_iosIcSt11char_traitsIcEE5clearESt12_Ios_Iostate(ptr noundef nonnull align 8 dereferenceable(264) %5, i32 noundef %8)
  ret void
}

; Function Attrs: mustprogress uwtable
define available_externally noundef i64 @_ZNSt15basic_streambufIcSt11char_traitsIcEE5sgetnEPcl(ptr noundef nonnull align 8 dereferenceable(64) %0, ptr noundef %1, i64 noundef %2) #0 align 2 {
  %4 = alloca ptr, align 8
  %5 = alloca ptr, align 8
  %6 = alloca i64, align 8
  store ptr %0, ptr %4, align 8, !tbaa !69
  store ptr %1, ptr %5, align 8, !tbaa !68
  store i64 %2, ptr %6, align 8, !tbaa !54
  %7 = load ptr, ptr %4, align 8
  %8 = load ptr, ptr %5, align 8, !tbaa !68
  %9 = load i64, ptr %6, align 8, !tbaa !54
  %10 = load ptr, ptr %7, align 8, !tbaa !28
  %11 = getelementptr inbounds ptr, ptr %10, i64 8
  %12 = load ptr, ptr %11, align 8
  %13 = call noundef i64 %12(ptr noundef nonnull align 8 dereferenceable(64) %7, ptr noundef %8, i64 noundef %9)
  ret i64 %13
}

; Function Attrs: inlinehint mustprogress nounwind uwtable
define linkonce_odr noundef ptr @_ZN4YAML10ReadBufferEPh(ptr noundef %0) #6 comdat {
  %2 = alloca ptr, align 8
  store ptr %0, ptr %2, align 8, !tbaa !68
  %3 = load ptr, ptr %2, align 8, !tbaa !68
  ret ptr %3
}

; Function Attrs: mustprogress nounwind uwtable
define available_externally noundef ptr @_ZNKSt9basic_iosIcSt11char_traitsIcEE5rdbufEv(ptr noundef nonnull align 8 dereferenceable(264) %0) #1 align 2 {
  %2 = alloca ptr, align 8
  store ptr %0, ptr %2, align 8, !tbaa !50
  %3 = load ptr, ptr %2, align 8
  %4 = getelementptr inbounds nuw %"class.std::basic_ios", ptr %3, i32 0, i32 4
  %5 = load ptr, ptr %4, align 8, !tbaa !71
  ret ptr %5
}

; Function Attrs: mustprogress uwtable
define noundef zeroext i8 @_ZNK4YAML6Stream11GetNextByteEv(ptr noundef nonnull align 8 dereferenceable(136) %0) #0 align 2 {
  %2 = alloca i8, align 1
  %3 = alloca ptr, align 8
  %4 = alloca ptr, align 8
  %5 = alloca i32, align 4
  store ptr %0, ptr %3, align 8, !tbaa !3
  %6 = load ptr, ptr %3, align 8
  %7 = getelementptr inbounds nuw %"class.YAML::Stream", ptr %6, i32 0, i32 7
  %8 = load i64, ptr %7, align 8, !tbaa !27
  %9 = getelementptr inbounds nuw %"class.YAML::Stream", ptr %6, i32 0, i32 6
  %10 = load i64, ptr %9, align 8, !tbaa !26
  %11 = icmp uge i64 %8, %10
  br i1 %11, label %12, label %46

12:                                               ; preds = %1
  call void @llvm.lifetime.start.p0(i64 8, ptr %4) #15
  %13 = getelementptr inbounds nuw %"class.YAML::Stream", ptr %6, i32 0, i32 0
  %14 = load ptr, ptr %13, align 8, !tbaa !55
  %15 = load ptr, ptr %14, align 8, !tbaa !28
  %16 = getelementptr i8, ptr %15, i64 -24
  %17 = load i64, ptr %16, align 8
  %18 = getelementptr inbounds i8, ptr %14, i64 %17
  %19 = call noundef ptr @_ZNKSt9basic_iosIcSt11char_traitsIcEE5rdbufEv(ptr noundef nonnull align 8 dereferenceable(264) %18)
  store ptr %19, ptr %4, align 8, !tbaa !69
  %20 = load ptr, ptr %4, align 8, !tbaa !69
  %21 = getelementptr inbounds nuw %"class.YAML::Stream", ptr %6, i32 0, i32 5
  %22 = load ptr, ptr %21, align 8, !tbaa !25
  %23 = call noundef ptr @_ZN4YAML10ReadBufferEPh(ptr noundef %22)
  %24 = call noundef i64 @_ZNSt15basic_streambufIcSt11char_traitsIcEE5sgetnEPcl(ptr noundef nonnull align 8 dereferenceable(64) %20, ptr noundef %23, i64 noundef 2048)
  %25 = getelementptr inbounds nuw %"class.YAML::Stream", ptr %6, i32 0, i32 6
  store i64 %24, ptr %25, align 8, !tbaa !26
  %26 = getelementptr inbounds nuw %"class.YAML::Stream", ptr %6, i32 0, i32 7
  store i64 0, ptr %26, align 8, !tbaa !27
  %27 = getelementptr inbounds nuw %"class.YAML::Stream", ptr %6, i32 0, i32 6
  %28 = load i64, ptr %27, align 8, !tbaa !26
  %29 = icmp ne i64 %28, 0
  br i1 %29, label %37, label %30

30:                                               ; preds = %12
  %31 = getelementptr inbounds nuw %"class.YAML::Stream", ptr %6, i32 0, i32 0
  %32 = load ptr, ptr %31, align 8, !tbaa !55
  %33 = load ptr, ptr %32, align 8, !tbaa !28
  %34 = getelementptr i8, ptr %33, i64 -24
  %35 = load i64, ptr %34, align 8
  %36 = getelementptr inbounds i8, ptr %32, i64 %35
  call void @_ZNSt9basic_iosIcSt11char_traitsIcEE8setstateESt12_Ios_Iostate(ptr noundef nonnull align 8 dereferenceable(264) %36, i32 noundef 2)
  br label %37

37:                                               ; preds = %30, %12
  %38 = getelementptr inbounds nuw %"class.YAML::Stream", ptr %6, i32 0, i32 6
  %39 = load i64, ptr %38, align 8, !tbaa !26
  %40 = icmp eq i64 0, %39
  br i1 %40, label %41, label %42

41:                                               ; preds = %37
  store i8 0, ptr %2, align 1
  store i32 1, ptr %5, align 4
  br label %43

42:                                               ; preds = %37
  store i32 0, ptr %5, align 4
  br label %43

43:                                               ; preds = %42, %41
  call void @llvm.lifetime.end.p0(i64 8, ptr %4) #15
  %44 = load i32, ptr %5, align 4
  switch i32 %44, label %56 [
    i32 0, label %45
    i32 1, label %54
  ]

45:                                               ; preds = %43
  br label %46

46:                                               ; preds = %45, %1
  %47 = getelementptr inbounds nuw %"class.YAML::Stream", ptr %6, i32 0, i32 5
  %48 = load ptr, ptr %47, align 8, !tbaa !25
  %49 = getelementptr inbounds nuw %"class.YAML::Stream", ptr %6, i32 0, i32 7
  %50 = load i64, ptr %49, align 8, !tbaa !27
  %51 = add i64 %50, 1
  store i64 %51, ptr %49, align 8, !tbaa !27
  %52 = getelementptr inbounds nuw i8, ptr %48, i64 %50
  %53 = load i8, ptr %52, align 1, !tbaa !39
  store i8 %53, ptr %2, align 1
  br label %54

54:                                               ; preds = %46, %43
  %55 = load i8, ptr %2, align 1
  ret i8 %55

56:                                               ; preds = %43
  unreachable
}