; Function Attrs: mustprogress uwtable
define noundef zeroext i8 @_ZNK4YAML6Stream11GetNextByteEv(ptr noundef nonnull align 8 captures(none) dereferenceable(136) %0) local_unnamed_addr #0 align 2 {
  %2 = getelementptr inbounds nuw i8, ptr %0, i64 128
  %3 = load i64, ptr %2, align 8, !tbaa !83
  %4 = getelementptr inbounds nuw i8, ptr %0, i64 120
  %5 = load i64, ptr %4, align 8, !tbaa !84
  %.not = icmp ult i64 %3, %5
  br i1 %.not, label %30, label %6

6:                                                ; preds = %1
  %7 = load ptr, ptr %0, align 8, !tbaa !57
  %8 = load ptr, ptr %7, align 8, !tbaa !22
  %9 = getelementptr i8, ptr %8, i64 -24
  %10 = load i64, ptr %9, align 8
  %11 = getelementptr inbounds i8, ptr %7, i64 %10
  %12 = getelementptr inbounds nuw i8, ptr %11, i64 232
  %13 = load ptr, ptr %12, align 8, !tbaa !85
  %14 = getelementptr inbounds nuw i8, ptr %0, i64 112
  %15 = load ptr, ptr %14, align 8, !tbaa !8
  %16 = load ptr, ptr %13, align 8, !tbaa !22
  %17 = getelementptr inbounds nuw i8, ptr %16, i64 64
  %18 = load ptr, ptr %17, align 8
  %19 = tail call noundef i64 %18(ptr noundef nonnull align 8 dereferenceable(64) %13, ptr noundef %15, i64 noundef 2048)
  store i64 %19, ptr %4, align 8, !tbaa !84
  store i64 0, ptr %2, align 8, !tbaa !83
  %.not4 = icmp eq i64 %19, 0
  br i1 %.not4, label %20, label %._crit_edge

20:                                               ; preds = %6
  %21 = load ptr, ptr %0, align 8, !tbaa !57
  %22 = load ptr, ptr %21, align 8, !tbaa !22
  %23 = getelementptr i8, ptr %22, i64 -24
  %24 = load i64, ptr %23, align 8
  %25 = getelementptr inbounds i8, ptr %21, i64 %24
  %26 = getelementptr inbounds nuw i8, ptr %25, i64 32
  %27 = load i32, ptr %26, align 8, !tbaa !24
  %28 = or i32 %27, 2
  tail call void @_ZNSt9basic_iosIcSt11char_traitsIcEE5clearESt12_Ios_Iostate(ptr noundef nonnull align 8 dereferenceable(264) %25, i32 noundef %28)
  %.pre = load i64, ptr %4, align 8, !tbaa !84
  %29 = icmp eq i64 %.pre, 0
  br i1 %29, label %37, label %._crit_edge

._crit_edge:                                      ; preds = %6, %20
  %.pre6 = load i64, ptr %2, align 8, !tbaa !83
  br label %30

30:                                               ; preds = %._crit_edge, %1
  %31 = phi i64 [ %.pre6, %._crit_edge ], [ %3, %1 ]
  %32 = getelementptr inbounds nuw i8, ptr %0, i64 112
  %33 = load ptr, ptr %32, align 8, !tbaa !8
  %34 = add i64 %31, 1
  store i64 %34, ptr %2, align 8, !tbaa !83
  %35 = getelementptr inbounds nuw i8, ptr %33, i64 %31
  %36 = load i8, ptr %35, align 1, !tbaa !36
  br label %37

37:                                               ; preds = %20, %30
  %.1 = phi i8 [ 0, %20 ], [ %36, %30 ]
  ret i8 %.1
}